; Function Attrs: mustprogress nofree norecurse nosync nounwind willreturn memory(read, inaccessiblemem: none) uwtable
define internal double @weight_Y(ptr noundef readonly captures(none) %0, double noundef %1, double noundef %2) #7 {
  %4 = getelementptr inbounds nuw i8, ptr %0, i64 4440
  %5 = load ptr, ptr %4, align 8, !tbaa !63
  %6 = fptosi double %1 to i32
  %7 = sext i32 %6 to i64
  %8 = getelementptr inbounds nuw i8, ptr %0, i64 4248
  %9 = load i64, ptr %8, align 8, !tbaa !56
  %10 = mul i64 %9, %7
  %11 = fptosi double %2 to i32
  %12 = sext i32 %11 to i64
  %13 = getelementptr float, ptr %5, i64 %10
  %14 = getelementptr float, ptr %13, i64 %12
  %15 = load float, ptr %14, align 4, !tbaa !65
  %16 = fpext nsz float %15 to double
  ret double %16
}